target datalayout = "e-m:e-p270:32:32-p271:32:32-p272:64:64-i64:64-i128:128-f80:128-n8:16:32:64-S128"
target triple = "x86_64-pc-linux-gnu"

%struct.IndexOptInfo = type { i32, i32, i32, ptr, i32, double, i32, i32, i32, ptr, ptr, ptr, ptr, ptr, ptr, ptr, ptr, ptr, i32, ptr, ptr, ptr, ptr, i8, i8, i8, i8, i8, i8, i8, i8, i8, i8, i8, i8, i8, ptr }
%struct.ec_member_matches_arg = type { ptr, i32 }
%struct.EquivalenceClass = type { i32, ptr, i32, ptr, ptr, ptr, ptr, i8, i8, i8, i32, i32, i32, ptr }
%struct.EquivalenceMember = type { i32, ptr, ptr, i8, i8, i32, ptr, ptr }

; Function Attrs: nounwind uwtable
define internal zeroext i1 @ec_member_matches_indexcol(ptr noundef %0, ptr noundef %1, ptr noundef %2, ptr noundef %3, ptr noundef %4) #0 {
  %6 = alloca i1, align 1
  %7 = alloca ptr, align 8
  %8 = alloca ptr, align 8
  %9 = alloca ptr, align 8
  %10 = alloca ptr, align 8
  %11 = alloca ptr, align 8
  %12 = alloca ptr, align 8
  %13 = alloca i32, align 4
  %14 = alloca i32, align 4
  %15 = alloca i32, align 4
  %16 = alloca i32, align 4
  store ptr %0, ptr %7, align 8
  store ptr %1, ptr %8, align 8
  store ptr %2, ptr %9, align 8
  store ptr %3, ptr %10, align 8
  store ptr %4, ptr %11, align 8
  call void @llvm.lifetime.start.p0(i64 8, ptr %12) #7
  %17 = load ptr, ptr %11, align 8
  %18 = getelementptr inbounds nuw %struct.ec_member_matches_arg, ptr %17, i32 0, i32 0
  %19 = load ptr, ptr %18, align 8
  store ptr %19, ptr %12, align 8
  call void @llvm.lifetime.start.p0(i64 4, ptr %13) #7
  %20 = load ptr, ptr %11, align 8
  %21 = getelementptr inbounds nuw %struct.ec_member_matches_arg, ptr %20, i32 0, i32 1
  %22 = load i32, ptr %21, align 8
  store i32 %22, ptr %13, align 4
  call void @llvm.lifetime.start.p0(i64 4, ptr %14) #7
  call void @llvm.lifetime.start.p0(i64 4, ptr %15) #7
  %23 = load ptr, ptr %12, align 8
  %24 = getelementptr inbounds nuw %struct.IndexOptInfo, ptr %23, i32 0, i32 11
  %25 = load ptr, ptr %24, align 8
  %26 = load i32, ptr %13, align 4
  %27 = sext i32 %26 to i64
  %28 = getelementptr inbounds i32, ptr %25, i64 %27
  %29 = load i32, ptr %28, align 4
  store i32 %29, ptr %14, align 4
  %30 = load ptr, ptr %12, align 8
  %31 = getelementptr inbounds nuw %struct.IndexOptInfo, ptr %30, i32 0, i32 10
  %32 = load ptr, ptr %31, align 8
  %33 = load i32, ptr %13, align 4
  %34 = sext i32 %33 to i64
  %35 = getelementptr inbounds i32, ptr %32, i64 %34
  %36 = load i32, ptr %35, align 4
  store i32 %36, ptr %15, align 4
  %37 = load ptr, ptr %12, align 8
  %38 = getelementptr inbounds nuw %struct.IndexOptInfo, ptr %37, i32 0, i32 18
  %39 = load i32, ptr %38, align 8
  %40 = icmp eq i32 %39, 403
  br i1 %40, label %41, label %48

41:                                               ; preds = %5
  %42 = load ptr, ptr %9, align 8
  %43 = getelementptr inbounds nuw %struct.EquivalenceClass, ptr %42, i32 0, i32 1
  %44 = load ptr, ptr %43, align 8
  %45 = load i32, ptr %14, align 4
  %46 = call zeroext i1 @list_member_oid(ptr noundef %44, i32 noundef %45)
  br i1 %46, label %48, label %47

47:                                               ; preds = %41
  store i1 false, ptr %6, align 1
  store i32 1, ptr %16, align 4
  br label %65

48:                                               ; preds = %41, %5
  %49 = load i32, ptr %15, align 4
  %50 = icmp eq i32 %49, 0
  br i1 %50, label %58, label %51

51:                                               ; preds = %48
  %52 = load i32, ptr %15, align 4
  %53 = load ptr, ptr %9, align 8
  %54 = getelementptr inbounds nuw %struct.EquivalenceClass, ptr %53, i32 0, i32 2
  %55 = load i32, ptr %54, align 8
  %56 = icmp eq i32 %52, %55
  br i1 %56, label %58, label %57

57:                                               ; preds = %51
  store i1 false, ptr %6, align 1
  store i32 1, ptr %16, align 4
  br label %65

58:                                               ; preds = %51, %48
  %59 = load ptr, ptr %10, align 8
  %60 = getelementptr inbounds nuw %struct.EquivalenceMember, ptr %59, i32 0, i32 1
  %61 = load ptr, ptr %60, align 8
  %62 = load i32, ptr %13, align 4
  %63 = load ptr, ptr %12, align 8
  %64 = call zeroext i1 @match_index_to_operand(ptr noundef %61, i32 noundef %62, ptr noundef %63)
  store i1 %64, ptr %6, align 1
  store i32 1, ptr %16, align 4
  br label %65

65:                                               ; preds = %58, %57, %47
  call void @llvm.lifetime.end.p0(i64 4, ptr %15) #7
  call void @llvm.lifetime.end.p0(i64 4, ptr %14) #7
  call void @llvm.lifetime.end.p0(i64 4, ptr %13) #7
  call void @llvm.lifetime.end.p0(i64 8, ptr %12) #7
  %66 = load i1, ptr %6, align 1
  ret i1 %66
}