; Function Attrs: nounwind uwtable
define internal noundef zeroext i1 @ec_member_matches_indexcol(ptr readnone captures(none) %0, ptr readnone captures(none) %1, ptr noundef readonly captures(none) %2, ptr noundef readonly captures(none) %3, ptr noundef readonly captures(none) %4) #0 {
  %6 = load ptr, ptr %4, align 8
  %7 = getelementptr inbounds nuw i8, ptr %4, i64 8
  %8 = load i32, ptr %7, align 8
  %9 = sext i32 %8 to i64
  %10 = getelementptr inbounds nuw i8, ptr %6, i64 64
  %11 = load ptr, ptr %10, align 8
  %12 = getelementptr inbounds i32, ptr %11, i64 %9
  %13 = load i32, ptr %12, align 4
  %14 = getelementptr inbounds nuw i8, ptr %6, i64 128
  %15 = load i32, ptr %14, align 8
  %16 = icmp eq i32 %15, 403
  br i1 %16, label %17, label %25

17:                                               ; preds = %5
  %18 = getelementptr inbounds nuw i8, ptr %6, i64 72
  %19 = load ptr, ptr %18, align 8
  %20 = getelementptr inbounds i32, ptr %19, i64 %9
  %21 = load i32, ptr %20, align 4
  %22 = getelementptr inbounds nuw i8, ptr %2, i64 8
  %23 = load ptr, ptr %22, align 8
  %24 = tail call zeroext i1 @list_member_oid(ptr noundef %23, i32 noundef %21) #8
  br i1 %24, label %25, label %35

25:                                               ; preds = %17, %5
  %26 = icmp eq i32 %13, 0
  br i1 %26, label %31, label %27

27:                                               ; preds = %25
  %28 = getelementptr inbounds nuw i8, ptr %2, i64 16
  %29 = load i32, ptr %28, align 8
  %30 = icmp eq i32 %13, %29
  br i1 %30, label %31, label %35

31:                                               ; preds = %27, %25
  %32 = getelementptr inbounds nuw i8, ptr %3, i64 8
  %33 = load ptr, ptr %32, align 8
  %34 = tail call zeroext i1 @match_index_to_operand(ptr noundef %33, i32 noundef %8, ptr noundef nonnull %6)
  br label %35

35:                                               ; preds = %27, %17, %31
  %.0 = phi i1 [ %34, %31 ], [ false, %17 ], [ false, %27 ]
  ret i1 %.0
}